target datalayout = "e-m:e-p270:32:32-p271:32:32-p272:64:64-i64:64-i128:128-f80:128-n8:16:32:64-S128"
target triple = "x86_64-pc-linux-gnu"

%class.JvmtiDynamicCodeEventCollector = type { %class.JvmtiEventCollector.base, ptr }
%class.JvmtiEventCollector.base = type <{ ptr, ptr, i8 }>
%class.JvmtiEventCollector = type <{ ptr, ptr, i8, [7 x i8] }>

@_ZN11JvmtiExport35_should_post_dynamic_code_generatedE = hidden global i8 0, align 1

; Function Attrs: mustprogress nounwind uwtable
define linkonce_odr hidden noundef zeroext i1 @_ZN11JvmtiExport34should_post_dynamic_code_generatedEv() #1 comdat align 2 {
  %1 = load i8, ptr @_ZN11JvmtiExport35_should_post_dynamic_code_generatedE, align 1
  %2 = trunc i8 %1 to i1
  ret i1 %2
}

; Function Attrs: mustprogress nounwind uwtable
define linkonce_odr hidden void @_ZN19JvmtiEventCollectorC2Ev(ptr noundef nonnull align 8 dereferenceable(17) %0) unnamed_addr #1 comdat align 2 {
  %2 = alloca ptr, align 8
  store ptr %0, ptr %2, align 8
  %3 = load ptr, ptr %2, align 8
  store ptr getelementptr inbounds inrange(-16, 24) ({ [5 x ptr] }, ptr @_ZTV19JvmtiEventCollector, i32 0, i32 0, i32 2), ptr %3, align 8
  %4 = getelementptr inbounds %class.JvmtiEventCollector, ptr %3, i32 0, i32 1
  store ptr null, ptr %4, align 8
  %5 = getelementptr inbounds %class.JvmtiEventCollector, ptr %3, i32 0, i32 2
  store i8 0, ptr %5, align 8
  ret void
}

; Function Attrs: mustprogress nounwind uwtable
define hidden void @_ZN30JvmtiDynamicCodeEventCollectorC2Ev(ptr noundef nonnull align 8 dereferenceable(32) %0) unnamed_addr #1 align 2 {
  %2 = alloca ptr, align 8
  store ptr %0, ptr %2, align 8
  %3 = load ptr, ptr %2, align 8
  call void @_ZN19JvmtiEventCollectorC2Ev(ptr noundef nonnull align 8 dereferenceable(17) %3)
  store ptr getelementptr inbounds inrange(-16, 24) ({ [5 x ptr] }, ptr @_ZTV30JvmtiDynamicCodeEventCollector, i32 0, i32 0, i32 2), ptr %3, align 8
  %4 = getelementptr inbounds %class.JvmtiDynamicCodeEventCollector, ptr %3, i32 0, i32 1
  store ptr null, ptr %4, align 8
  %5 = call noundef zeroext i1 @_ZN11JvmtiExport34should_post_dynamic_code_generatedEv()
  br i1 %5, label %6, label %7

6:                                                ; preds = %1
  call void @_ZN19JvmtiEventCollector24setup_jvmti_thread_stateEv(ptr noundef nonnull align 8 dereferenceable(17) %3)
  br label %7

7:                                                ; preds = %6, %1
  ret void
}