; Function Attrs: mustprogress nounwind uwtable
define hidden void @_ZN30JvmtiDynamicCodeEventCollectorC2Ev(ptr noundef nonnull align 8 dereferenceable(32) %0) unnamed_addr #1 align 2 {
  %2 = getelementptr inbounds i8, ptr %0, i64 8
  store ptr null, ptr %2, align 8
  %3 = getelementptr inbounds i8, ptr %0, i64 16
  store i8 0, ptr %3, align 8
  store ptr getelementptr inbounds inrange(-16, 24) (i8, ptr @_ZTV30JvmtiDynamicCodeEventCollector, i64 16), ptr %0, align 8
  %4 = getelementptr inbounds i8, ptr %0, i64 24
  store ptr null, ptr %4, align 8
  %5 = load i8, ptr @_ZN11JvmtiExport35_should_post_dynamic_code_generatedE, align 1
  %6 = trunc i8 %5 to i1
  br i1 %6, label %7, label %8

7:                                                ; preds = %1
  tail call void @_ZN19JvmtiEventCollector24setup_jvmti_thread_stateEv(ptr noundef nonnull align 8 dereferenceable(17) %0)
  br label %8

8:                                                ; preds = %7, %1
  ret void
}